target datalayout = "e-m:e-p270:32:32-p271:32:32-p272:64:64-i64:64-i128:128-f80:128-n8:16:32:64-S128"
target triple = "x86_64-pc-linux-gnu"

%struct.mbedtls_net_context = type { i32 }
%struct.timeval = type { i64, i64 }
%struct.fd_set = type { [16 x i64] }

; Function Attrs: nounwind uwtable
define internal i32 @net_would_block(ptr noundef %0) #0 {
  %2 = alloca i32, align 4
  %3 = alloca ptr, align 8
  %4 = alloca i32, align 4
  %5 = alloca i32, align 4
  store ptr %0, ptr %3, align 8, !tbaa !3
  call void @llvm.lifetime.start.p0(i64 4, ptr %4) #7
  %6 = call ptr @__errno_location() #8
  %7 = load i32, ptr %6, align 4, !tbaa !13
  store i32 %7, ptr %4, align 4, !tbaa !13
  %8 = load ptr, ptr %3, align 8, !tbaa !3
  %9 = getelementptr inbounds nuw %struct.mbedtls_net_context, ptr %8, i32 0, i32 0
  %10 = load i32, ptr %9, align 4, !tbaa !8
  %11 = call i32 (i32, i32, ...) @fcntl(i32 noundef %10, i32 noundef 3)
  %12 = and i32 %11, 2048
  %13 = icmp ne i32 %12, 2048
  br i1 %13, label %14, label %17

14:                                               ; preds = %1
  %15 = load i32, ptr %4, align 4, !tbaa !13
  %16 = call ptr @__errno_location() #8
  store i32 %15, ptr %16, align 4, !tbaa !13
  store i32 0, ptr %2, align 4
  store i32 1, ptr %5, align 4
  br label %22

17:                                               ; preds = %1
  %18 = load i32, ptr %4, align 4, !tbaa !13
  %19 = call ptr @__errno_location() #8
  store i32 %18, ptr %19, align 4, !tbaa !13
  switch i32 %18, label %21 [
    i32 11, label %20
  ]

20:                                               ; preds = %17
  store i32 1, ptr %2, align 4
  store i32 1, ptr %5, align 4
  br label %22

21:                                               ; preds = %17
  store i32 0, ptr %2, align 4
  store i32 1, ptr %5, align 4
  br label %22

22:                                               ; preds = %21, %20, %14
  call void @llvm.lifetime.end.p0(i64 4, ptr %4) #7
  %23 = load i32, ptr %2, align 4
  ret i32 %23
}

; Function Attrs: nounwind uwtable
define hidden i32 @mbedtls_net_recv(ptr noundef %0, ptr noundef %1, i64 noundef %2) #0 {
  %4 = alloca i32, align 4
  %5 = alloca ptr, align 8
  %6 = alloca ptr, align 8
  %7 = alloca i64, align 8
  %8 = alloca i32, align 4
  %9 = alloca i32, align 4
  %10 = alloca i32, align 4
  store ptr %0, ptr %5, align 8, !tbaa !28
  store ptr %1, ptr %6, align 8, !tbaa !11
  store i64 %2, ptr %7, align 8, !tbaa !29
  call void @llvm.lifetime.start.p0(i64 4, ptr %8) #7
  store i32 -110, ptr %8, align 4, !tbaa !13
  call void @llvm.lifetime.start.p0(i64 4, ptr %9) #7
  %11 = load ptr, ptr %5, align 8, !tbaa !28
  %12 = getelementptr inbounds nuw %struct.mbedtls_net_context, ptr %11, i32 0, i32 0
  %13 = load i32, ptr %12, align 4, !tbaa !8
  store i32 %13, ptr %9, align 4, !tbaa !13
  %14 = load i32, ptr %9, align 4, !tbaa !13
  %15 = call i32 @check_fd(i32 noundef %14, i32 noundef 0)
  store i32 %15, ptr %8, align 4, !tbaa !13
  %16 = load i32, ptr %8, align 4, !tbaa !13
  %17 = icmp ne i32 %16, 0
  br i1 %17, label %18, label %20

18:                                               ; preds = %3
  %19 = load i32, ptr %8, align 4, !tbaa !13
  store i32 %19, ptr %4, align 4
  store i32 1, ptr %10, align 4
  br label %50

20:                                               ; preds = %3
  %21 = load i32, ptr %9, align 4, !tbaa !13
  %22 = load ptr, ptr %6, align 8, !tbaa !11
  %23 = load i64, ptr %7, align 8, !tbaa !29
  %24 = call i64 @read(i32 noundef %21, ptr noundef %22, i64 noundef %23)
  %25 = trunc i64 %24 to i32
  store i32 %25, ptr %8, align 4, !tbaa !13
  %26 = load i32, ptr %8, align 4, !tbaa !13
  %27 = icmp slt i32 %26, 0
  br i1 %27, label %28, label %48

28:                                               ; preds = %20
  %29 = load ptr, ptr %5, align 8, !tbaa !28
  %30 = call i32 @net_would_block(ptr noundef %29)
  %31 = icmp ne i32 %30, 0
  br i1 %31, label %32, label %33

32:                                               ; preds = %28
  store i32 -26880, ptr %4, align 4
  store i32 1, ptr %10, align 4
  br label %50

33:                                               ; preds = %28
  %34 = call ptr @__errno_location() #8
  %35 = load i32, ptr %34, align 4, !tbaa !13
  %36 = icmp eq i32 %35, 32
  br i1 %36, label %41, label %37

37:                                               ; preds = %33
  %38 = call ptr @__errno_location() #8
  %39 = load i32, ptr %38, align 4, !tbaa !13
  %40 = icmp eq i32 %39, 104
  br i1 %40, label %41, label %42

41:                                               ; preds = %37, %33
  store i32 -80, ptr %4, align 4
  store i32 1, ptr %10, align 4
  br label %50

42:                                               ; preds = %37
  %43 = call ptr @__errno_location() #8
  %44 = load i32, ptr %43, align 4, !tbaa !13
  %45 = icmp eq i32 %44, 4
  br i1 %45, label %46, label %47

46:                                               ; preds = %42
  store i32 -26880, ptr %4, align 4
  store i32 1, ptr %10, align 4
  br label %50

47:                                               ; preds = %42
  store i32 -76, ptr %4, align 4
  store i32 1, ptr %10, align 4
  br label %50

48:                                               ; preds = %20
  %49 = load i32, ptr %8, align 4, !tbaa !13
  store i32 %49, ptr %4, align 4
  store i32 1, ptr %10, align 4
  br label %50

50:                                               ; preds = %48, %47, %46, %41, %32, %18
  call void @llvm.lifetime.end.p0(i64 4, ptr %9) #7
  call void @llvm.lifetime.end.p0(i64 4, ptr %8) #7
  %51 = load i32, ptr %4, align 4
  ret i32 %51
}

; Function Attrs: nounwind uwtable
define internal i32 @check_fd(i32 noundef %0, i32 noundef %1) #0 {
  %3 = alloca i32, align 4
  %4 = alloca i32, align 4
  %5 = alloca i32, align 4
  store i32 %0, ptr %4, align 4, !tbaa !13
  store i32 %1, ptr %5, align 4, !tbaa !13
  %6 = load i32, ptr %4, align 4, !tbaa !13
  %7 = icmp slt i32 %6, 0
  br i1 %7, label %8, label %9

8:                                                ; preds = %2
  store i32 -69, ptr %3, align 4
  br label %17

9:                                                ; preds = %2
  %10 = load i32, ptr %5, align 4, !tbaa !13
  %11 = icmp ne i32 %10, 0
  br i1 %11, label %12, label %16

12:                                               ; preds = %9
  %13 = load i32, ptr %4, align 4, !tbaa !13
  %14 = icmp sge i32 %13, 1024
  br i1 %14, label %15, label %16

15:                                               ; preds = %12
  store i32 -71, ptr %3, align 4
  br label %17

16:                                               ; preds = %12, %9
  store i32 0, ptr %3, align 4
  br label %17

17:                                               ; preds = %16, %15, %8
  %18 = load i32, ptr %3, align 4
  ret i32 %18
}

; Function Attrs: nounwind uwtable
define hidden i32 @mbedtls_net_recv_timeout(ptr noundef %0, ptr noundef %1, i64 noundef %2, i32 noundef %3) #0 {
  %5 = alloca i32, align 4
  %6 = alloca ptr, align 8
  %7 = alloca ptr, align 8
  %8 = alloca i64, align 8
  %9 = alloca i32, align 4
  %10 = alloca i32, align 4
  %11 = alloca %struct.timeval, align 8
  %12 = alloca %struct.fd_set, align 8
  %13 = alloca i32, align 4
  %14 = alloca i32, align 4
  %15 = alloca i32, align 4
  %16 = alloca ptr, align 8
  store ptr %0, ptr %6, align 8, !tbaa !28
  store ptr %1, ptr %7, align 8, !tbaa !11
  store i64 %2, ptr %8, align 8, !tbaa !29
  store i32 %3, ptr %9, align 4, !tbaa !13
  call void @llvm.lifetime.start.p0(i64 4, ptr %10) #7
  store i32 -110, ptr %10, align 4, !tbaa !13
  call void @llvm.lifetime.start.p0(i64 16, ptr %11) #7
  call void @llvm.lifetime.start.p0(i64 128, ptr %12) #7
  call void @llvm.lifetime.start.p0(i64 4, ptr %13) #7
  %17 = load ptr, ptr %6, align 8, !tbaa !28
  %18 = getelementptr inbounds nuw %struct.mbedtls_net_context, ptr %17, i32 0, i32 0
  %19 = load i32, ptr %18, align 4, !tbaa !8
  store i32 %19, ptr %13, align 4, !tbaa !13
  %20 = load i32, ptr %13, align 4, !tbaa !13
  %21 = call i32 @check_fd(i32 noundef %20, i32 noundef 1)
  store i32 %21, ptr %10, align 4, !tbaa !13
  %22 = load i32, ptr %10, align 4, !tbaa !13
  %23 = icmp ne i32 %22, 0
  br i1 %23, label %24, label %26

24:                                               ; preds = %4
  %25 = load i32, ptr %10, align 4, !tbaa !13
  store i32 %25, ptr %5, align 4
  store i32 1, ptr %14, align 4
  br label %90

26:                                               ; preds = %4
  br label %27

27:                                               ; preds = %26
  call void @llvm.lifetime.start.p0(i64 4, ptr %15) #7
  call void @llvm.lifetime.start.p0(i64 8, ptr %16) #7
  store ptr %12, ptr %16, align 8, !tbaa !28
  store i32 0, ptr %15, align 4, !tbaa !13
  br label %28

28:                                               ; preds = %38, %27
  %29 = load i32, ptr %15, align 4, !tbaa !13
  %30 = zext i32 %29 to i64
  %31 = icmp ult i64 %30, 16
  br i1 %31, label %32, label %41

32:                                               ; preds = %28
  %33 = load ptr, ptr %16, align 8, !tbaa !28
  %34 = getelementptr inbounds nuw %struct.fd_set, ptr %33, i32 0, i32 0
  %35 = load i32, ptr %15, align 4, !tbaa !13
  %36 = zext i32 %35 to i64
  %37 = getelementptr inbounds nuw [16 x i64], ptr %34, i64 0, i64 %36
  store i64 0, ptr %37, align 8, !tbaa !29
  br label %38

38:                                               ; preds = %32
  %39 = load i32, ptr %15, align 4, !tbaa !13
  %40 = add i32 %39, 1
  store i32 %40, ptr %15, align 4, !tbaa !13
  br label %28, !llvm.loop !46

41:                                               ; preds = %28
  call void @llvm.lifetime.end.p0(i64 8, ptr %16) #7
  call void @llvm.lifetime.end.p0(i64 4, ptr %15) #7
  br label %42

42:                                               ; preds = %41
  br label %43

43:                                               ; preds = %42
  %44 = load i32, ptr %13, align 4, !tbaa !13
  %45 = srem i32 %44, 64
  %46 = zext i32 %45 to i64
  %47 = shl i64 1, %46
  %48 = getelementptr inbounds nuw %struct.fd_set, ptr %12, i32 0, i32 0
  %49 = load i32, ptr %13, align 4, !tbaa !13
  %50 = sdiv i32 %49, 64
  %51 = sext i32 %50 to i64
  %52 = getelementptr inbounds [16 x i64], ptr %48, i64 0, i64 %51
  %53 = load i64, ptr %52, align 8, !tbaa !29
  %54 = or i64 %53, %47
  store i64 %54, ptr %52, align 8, !tbaa !29
  %55 = load i32, ptr %9, align 4, !tbaa !13
  %56 = udiv i32 %55, 1000
  %57 = zext i32 %56 to i64
  %58 = getelementptr inbounds nuw %struct.timeval, ptr %11, i32 0, i32 0
  store i64 %57, ptr %58, align 8, !tbaa !42
  %59 = load i32, ptr %9, align 4, !tbaa !13
  %60 = urem i32 %59, 1000
  %61 = mul i32 %60, 1000
  %62 = zext i32 %61 to i64
  %63 = getelementptr inbounds nuw %struct.timeval, ptr %11, i32 0, i32 1
  store i64 %62, ptr %63, align 8, !tbaa !44
  %64 = load i32, ptr %13, align 4, !tbaa !13
  %65 = add nsw i32 %64, 1
  %66 = load i32, ptr %9, align 4, !tbaa !13
  %67 = icmp eq i32 %66, 0
  br i1 %67, label %68, label %69

68:                                               ; preds = %43
  br label %70

69:                                               ; preds = %43
  br label %70

70:                                               ; preds = %69, %68
  %71 = phi ptr [ null, %68 ], [ %11, %69 ]
  %72 = call i32 @select(i32 noundef %65, ptr noundef %12, ptr noundef null, ptr noundef null, ptr noundef %71)
  store i32 %72, ptr %10, align 4, !tbaa !13
  %73 = load i32, ptr %10, align 4, !tbaa !13
  %74 = icmp eq i32 %73, 0
  br i1 %74, label %75, label %76

75:                                               ; preds = %70
  store i32 -26624, ptr %5, align 4
  store i32 1, ptr %14, align 4
  br label %90

76:                                               ; preds = %70
  %77 = load i32, ptr %10, align 4, !tbaa !13
  %78 = icmp slt i32 %77, 0
  br i1 %78, label %79, label %85

79:                                               ; preds = %76
  %80 = call ptr @__errno_location() #8
  %81 = load i32, ptr %80, align 4, !tbaa !13
  %82 = icmp eq i32 %81, 4
  br i1 %82, label %83, label %84

83:                                               ; preds = %79
  store i32 -26880, ptr %5, align 4
  store i32 1, ptr %14, align 4
  br label %90

84:                                               ; preds = %79
  store i32 -76, ptr %5, align 4
  store i32 1, ptr %14, align 4
  br label %90

85:                                               ; preds = %76
  %86 = load ptr, ptr %6, align 8, !tbaa !28
  %87 = load ptr, ptr %7, align 8, !tbaa !11
  %88 = load i64, ptr %8, align 8, !tbaa !29
  %89 = call i32 @mbedtls_net_recv(ptr noundef %86, ptr noundef %87, i64 noundef %88)
  store i32 %89, ptr %5, align 4
  store i32 1, ptr %14, align 4
  br label %90

90:                                               ; preds = %85, %84, %83, %75, %24
  call void @llvm.lifetime.end.p0(i64 4, ptr %13) #7
  call void @llvm.lifetime.end.p0(i64 128, ptr %12) #7
  call void @llvm.lifetime.end.p0(i64 16, ptr %11) #7
  call void @llvm.lifetime.end.p0(i64 4, ptr %10) #7
  %91 = load i32, ptr %5, align 4
  ret i32 %91
}