; Function Attrs: nounwind uwtable
define hidden range(i32 -26880, -2147483648) i32 @mbedtls_net_recv_timeout(ptr noundef readonly captures(none) %0, ptr noundef captures(none) %1, i64 noundef %2, i32 noundef %3) local_unnamed_addr #1 {
  %5 = alloca %struct.timeval, align 8
  %6 = alloca %struct.fd_set, align 8
  call void @llvm.lifetime.start.p0(i64 16, ptr nonnull %5) #9
  call void @llvm.lifetime.start.p0(i64 128, ptr nonnull %6) #9
  %7 = load i32, ptr %0, align 4, !tbaa !3
  %8 = icmp slt i32 %7, 0
  %9 = icmp sgt i32 %7, 1023
  %..i = select i1 %9, i32 -71, i32 0
  %.0.i = select i1 %8, i32 -69, i32 %..i
  %.not = icmp eq i32 %.0.i, 0
  br i1 %.not, label %.preheader.preheader, label %mbedtls_net_recv.exit

.preheader.preheader:                             ; preds = %4
  call void @llvm.memset.p0.i64(ptr noundef nonnull align 8 dereferenceable(128) %6, i8 0, i64 128, i1 false), !tbaa !28
  %10 = srem i32 %7, 64
  %11 = zext nneg i32 %10 to i64
  %12 = shl nuw i64 1, %11
  %13 = sdiv i32 %7, 64
  %14 = sext i32 %13 to i64
  %15 = getelementptr inbounds [16 x i64], ptr %6, i64 0, i64 %14
  %16 = load i64, ptr %15, align 8, !tbaa !28
  %17 = or i64 %16, %12
  store i64 %17, ptr %15, align 8, !tbaa !28
  %18 = udiv i32 %3, 1000
  %19 = zext nneg i32 %18 to i64
  store i64 %19, ptr %5, align 8, !tbaa !29
  %20 = urem i32 %3, 1000
  %21 = mul nuw nsw i32 %20, 1000
  %22 = zext nneg i32 %21 to i64
  %23 = getelementptr inbounds nuw i8, ptr %5, i64 8
  store i64 %22, ptr %23, align 8, !tbaa !31
  %24 = add nsw i32 %7, 1
  %25 = icmp eq i32 %3, 0
  %26 = select i1 %25, ptr null, ptr %5
  %27 = call i32 @select(i32 noundef %24, ptr noundef nonnull %6, ptr noundef null, ptr noundef null, ptr noundef %26) #9
  %28 = icmp eq i32 %27, 0
  br i1 %28, label %mbedtls_net_recv.exit, label %29

29:                                               ; preds = %.preheader.preheader
  %30 = icmp slt i32 %27, 0
  br i1 %30, label %31, label %35

31:                                               ; preds = %29
  %32 = tail call ptr @__errno_location() #10
  %33 = load i32, ptr %32, align 4, !tbaa !22
  %34 = icmp eq i32 %33, 4
  %. = select i1 %34, i32 -26880, i32 -76
  br label %mbedtls_net_recv.exit

35:                                               ; preds = %29
  %36 = load i32, ptr %0, align 4, !tbaa !3
  %37 = icmp sgt i32 %36, -1
  br i1 %37, label %38, label %mbedtls_net_recv.exit

38:                                               ; preds = %35
  %39 = call i64 @read(i32 noundef %36, ptr noundef %1, i64 noundef %2) #9
  %40 = trunc i64 %39 to i32
  %41 = icmp slt i32 %40, 0
  br i1 %41, label %42, label %mbedtls_net_recv.exit

42:                                               ; preds = %38
  %.val.i = load i32, ptr %0, align 4, !tbaa !3
  %43 = tail call ptr @__errno_location() #10
  %44 = load i32, ptr %43, align 4, !tbaa !22
  %45 = call i32 (i32, i32, ...) @fcntl(i32 noundef %.val.i, i32 noundef 3) #9
  %46 = and i32 %45, 2048
  %.not.not.i.i = icmp eq i32 %46, 0
  %cond.i.i = icmp ne i32 %44, 11
  %narrow.i.not.i = select i1 %.not.not.i.i, i1 true, i1 %cond.i.i
  store i32 %44, ptr %43, align 4, !tbaa !22
  br i1 %narrow.i.not.i, label %47, label %mbedtls_net_recv.exit

47:                                               ; preds = %42
  switch i32 %44, label %49 [
    i32 32, label %mbedtls_net_recv.exit
    i32 104, label %mbedtls_net_recv.exit
    i32 4, label %48
  ]

48:                                               ; preds = %47
  br label %mbedtls_net_recv.exit

49:                                               ; preds = %47
  br label %mbedtls_net_recv.exit

mbedtls_net_recv.exit:                            ; preds = %49, %48, %47, %47, %42, %38, %35, %31, %.preheader.preheader, %4
  %.0 = phi i32 [ %.0.i, %4 ], [ -26624, %.preheader.preheader ], [ %., %31 ], [ -26880, %48 ], [ -76, %49 ], [ -69, %35 ], [ -26880, %42 ], [ -80, %47 ], [ -80, %47 ], [ %40, %38 ]
  call void @llvm.lifetime.end.p0(i64 128, ptr nonnull %6) #9
  call void @llvm.lifetime.end.p0(i64 16, ptr nonnull %5) #9
  ret i32 %.0
}